
simple_os.o:     file format elf32-littleriscv


Disassembly of section .text:

00000000 <_boot>:
       0:	200000b7          	lui	ra,0x20000
       4:	80001137          	lui	sp,0x80001
       8:	80010113          	addi	sp,sp,-2048 # 80000800 <m_sp>
       c:	800001b7          	lui	gp,0x80000
      10:	00000213          	li	tp,0
      14:	00000293          	li	t0,0
      18:	00000313          	li	t1,0
      1c:	00000393          	li	t2,0
      20:	00000e13          	li	t3,0
      24:	00000e93          	li	t4,0
      28:	00000f13          	li	t5,0
      2c:	00000f93          	li	t6,0
      30:	00000513          	li	a0,0
      34:	00000593          	li	a1,0
      38:	00000613          	li	a2,0
      3c:	00000693          	li	a3,0
      40:	00000713          	li	a4,0
      44:	00000793          	li	a5,0
      48:	00000813          	li	a6,0
      4c:	00000893          	li	a7,0
      50:	00000413          	li	s0,0
      54:	00000493          	li	s1,0
      58:	00000913          	li	s2,0
      5c:	00000993          	li	s3,0
      60:	00000a13          	li	s4,0
      64:	00000a93          	li	s5,0
      68:	00000b13          	li	s6,0
      6c:	00000b93          	li	s7,0
      70:	00000c13          	li	s8,0
      74:	00000c93          	li	s9,0
      78:	00000d13          	li	s10,0
      7c:	00000d93          	li	s11,0
      80:	10008537          	lui	a0,0x10008
      84:	00850513          	addi	a0,a0,8 # 10008008 <PRCI+0x8>
      88:	fff00593          	li	a1,-1
      8c:	00070637          	lui	a2,0x70
      90:	210000ef          	jal	2a0 <set_mem>
      94:	10008537          	lui	a0,0x10008
      98:	00100593          	li	a1,1
      9c:	06b52e23          	sw	a1,124(a0) # 1000807c <PRCI+0x7c>
      a0:	00000297          	auipc	t0,0x0
      a4:	00028293          	mv	t0,t0
      a8:	ffe2f293          	andi	t0,t0,-2
      ac:	0012e293          	ori	t0,t0,1
      b0:	30529073          	csrw	mtvec,t0
      b4:	10012537          	lui	a0,0x10012
      b8:	00c50513          	addi	a0,a0,12 # 1001200c <GPIO+0xc>
      bc:	006805b7          	lui	a1,0x680
      c0:	00680637          	lui	a2,0x680
      c4:	1dc000ef          	jal	2a0 <set_mem>
      c8:	100122b7          	lui	t0,0x10012
      cc:	006b0337          	lui	t1,0x6b0
      d0:	0062a423          	sw	t1,8(t0) # 10012008 <GPIO+0x8>
      d4:	00030337          	lui	t1,0x30
      d8:	0262ac23          	sw	t1,56(t0)
      dc:	100132b7          	lui	t0,0x10013
      e0:	08a00313          	li	t1,138
      e4:	0062ac23          	sw	t1,24(t0) # 10013018 <UART_0+0x18>
      e8:	00010337          	lui	t1,0x10
      ec:	00130313          	addi	t1,t1,1 # 10001 <tx_en>
      f0:	0062a423          	sw	t1,8(t0)
      f4:	00100313          	li	t1,1
      f8:	0062a623          	sw	t1,12(t0)
      fc:	fff00293          	li	t0,-1
     100:	4651a223          	sw	t0,1124(gp) # 80000464 <DTIM+0x464>
     104:	4651a423          	sw	t0,1128(gp)
     108:	4601a623          	sw	zero,1132(gp)
     10c:	4451a023          	sw	t0,1088(gp)
     110:	4451a223          	sw	t0,1092(gp)
     114:	0c0022b7          	lui	t0,0xc002
     118:	0002a023          	sw	zero,0(t0) # c002000 <PLIC+0x2000>
     11c:	0002a223          	sw	zero,4(t0)
     120:	0c2002b7          	lui	t0,0xc200
     124:	0002a023          	sw	zero,0(t0) # c200000 <PLIC+0x200000>
     128:	0c0002b7          	lui	t0,0xc000
     12c:	00c28293          	addi	t0,t0,12 # c00000c <PLIC+0xc>
     130:	00100313          	li	t1,1
     134:	0062a023          	sw	t1,0(t0)
     138:	0c002537          	lui	a0,0xc002
     13c:	00800593          	li	a1,8
     140:	00058613          	mv	a2,a1
     144:	15c000ef          	jal	2a0 <set_mem>
     148:	0001a023          	sw	zero,0(gp)
     14c:	fff00293          	li	t0,-1
     150:	0051a223          	sw	t0,4(gp)
     154:	4201a023          	sw	zero,1056(gp)
     158:	fff00293          	li	t0,-1
     15c:	0451a223          	sw	t0,68(gp)
     160:	0451a423          	sw	t0,72(gp)
     164:	02418293          	addi	t0,gp,36
     168:	0251a223          	sw	t0,36(gp)
     16c:	04c18313          	addi	t1,gp,76
     170:	ffc28293          	addi	t0,t0,-4
     174:	0062a023          	sw	t1,0(t0)
     178:	800013b7          	lui	t2,0x80001
     17c:	80038393          	addi	t2,t2,-2048 # 80000800 <m_sp>
     180:	00732623          	sw	t2,12(t1)
     184:	08c30313          	addi	t1,t1,140
     188:	ffc28293          	addi	t0,t0,-4
     18c:	0062a023          	sw	t1,0(t0)
     190:	800013b7          	lui	t2,0x80001
     194:	00732623          	sw	t2,12(t1)
     198:	08c30313          	addi	t1,t1,140
     19c:	ffc28293          	addi	t0,t0,-4
     1a0:	0062a023          	sw	t1,0(t0)
     1a4:	800023b7          	lui	t2,0x80002
     1a8:	80038393          	addi	t2,t2,-2048 # 80001800 <user_data_2>
     1ac:	00732623          	sw	t2,12(t1)
     1b0:	08c30313          	addi	t1,t1,140
     1b4:	ffc28293          	addi	t0,t0,-4
     1b8:	0062a023          	sw	t1,0(t0)
     1bc:	800023b7          	lui	t2,0x80002
     1c0:	00732623          	sw	t2,12(t1)
     1c4:	08c30313          	addi	t1,t1,140
     1c8:	ffc28293          	addi	t0,t0,-4
     1cc:	0062a023          	sw	t1,0(t0)
     1d0:	800033b7          	lui	t2,0x80003
     1d4:	80038393          	addi	t2,t2,-2048 # 80002800 <user_data_4>
     1d8:	00732623          	sw	t2,12(t1)
     1dc:	08c30313          	addi	t1,t1,140
     1e0:	ffc28293          	addi	t0,t0,-4
     1e4:	0062a023          	sw	t1,0(t0)
     1e8:	800033b7          	lui	t2,0x80003
     1ec:	00732623          	sw	t2,12(t1)
     1f0:	08c30313          	addi	t1,t1,140
     1f4:	ffc28293          	addi	t0,t0,-4
     1f8:	0062a023          	sw	t1,0(t0)
     1fc:	800043b7          	lui	t2,0x80004
     200:	80038393          	addi	t2,t2,-2048 # 80003800 <user_data_6>
     204:	00732623          	sw	t2,12(t1)
     208:	0251a223          	sw	t0,36(gp)
     20c:	00100513          	li	a0,1
     210:	00000597          	auipc	a1,0x0
     214:	00058593          	mv	a1,a1
     218:	00000893          	li	a7,0
     21c:	00000073          	ecall
     220:	00800513          	li	a0,8
     224:	00000597          	auipc	a1,0x0
     228:	00058593          	mv	a1,a1
     22c:	00000893          	li	a7,0
     230:	00000073          	ecall
     234:	00800513          	li	a0,8
     238:	00000597          	auipc	a1,0x0
     23c:	00058593          	mv	a1,a1
     240:	00000893          	li	a7,0
     244:	00000073          	ecall
     248:	00300513          	li	a0,3
     24c:	00000597          	auipc	a1,0x0
     250:	00058593          	mv	a1,a1
     254:	00000893          	li	a7,0
     258:	00000073          	ecall
     25c:	00300513          	li	a0,3
     260:	00000597          	auipc	a1,0x0
     264:	00058593          	mv	a1,a1
     268:	00000893          	li	a7,0
     26c:	00000073          	ecall
     270:	00300513          	li	a0,3
     274:	00000597          	auipc	a1,0x0
     278:	00058593          	mv	a1,a1
     27c:	00000893          	li	a7,0
     280:	00000073          	ecall
     284:	00000517          	auipc	a0,0x0
     288:	00050513          	mv	a0,a0
     28c:	074000ef          	jal	300 <print_const>
     290:	00100893          	li	a7,1
     294:	00000073          	ecall

00000298 <t>:
     298:	00000013          	nop
     29c:	ffdff06f          	j	298 <t>

000002a0 <set_mem>:
     2a0:	00052683          	lw	a3,0(a0) # 284 <_boot+0x284>
     2a4:	fff5c593          	not	a1,a1
     2a8:	00b6f6b3          	and	a3,a3,a1
     2ac:	00c6e6b3          	or	a3,a3,a2
     2b0:	00d52023          	sw	a3,0(a0)
     2b4:	00008067          	ret

000002b8 <enqueue>:
     2b8:	00158593          	addi	a1,a1,1 # 275 <_boot+0x275>
     2bc:	00c5c463          	blt	a1,a2,2c4 <not_over_e>
     2c0:	00000593          	li	a1,0

000002c4 <not_over_e>:
     2c4:	00259713          	slli	a4,a1,0x2
     2c8:	00e686b3          	add	a3,a3,a4
     2cc:	00a6a023          	sw	a0,0(a3)
     2d0:	00008067          	ret

000002d4 <dequeue>:
     2d4:	00158593          	addi	a1,a1,1
     2d8:	00c5c463          	blt	a1,a2,2e0 <not_over_d>
     2dc:	00000593          	li	a1,0

000002e0 <not_over_d>:
     2e0:	00259613          	slli	a2,a1,0x2
     2e4:	00c686b3          	add	a3,a3,a2
     2e8:	0006a503          	lw	a0,0(a3)
     2ec:	00008067          	ret

000002f0 <get_head>:
     2f0:	00259593          	slli	a1,a1,0x2
     2f4:	00c58633          	add	a2,a1,a2
     2f8:	00062503          	lw	a0,0(a2) # 680000 <led_off>
     2fc:	00008067          	ret

00000300 <print_const>:
     300:	100132b7          	lui	t0,0x10013
     304:	fff50513          	addi	a0,a0,-1

00000308 <print_const_body>:
     308:	00150513          	addi	a0,a0,1
     30c:	00050303          	lb	t1,0(a0)

00000310 <print_const_write>:
     310:	4062a3af          	amoor.w	t2,t1,(t0)
     314:	fe701ee3          	bne	zero,t2,310 <print_const_write>
     318:	fe6018e3          	bne	zero,t1,308 <print_const_body>
     31c:	00008067          	ret

00000320 <block_process>:
     320:	00200593          	li	a1,2
     324:	00b50123          	sb	a1,2(a0)
     328:	02004337          	lui	t1,0x2004
     32c:	00032223          	sw	zero,4(t1) # 2004004 <CLINT+0x4004>
     330:	00032023          	sw	zero,0(t1)
     334:	00008067          	ret

00000338 <unblock_process>:
     338:	ffc10113          	addi	sp,sp,-4
     33c:	00112023          	sw	ra,0(sp)
     340:	00100593          	li	a1,1
     344:	00b50123          	sb	a1,2(a0)
     348:	0041a583          	lw	a1,4(gp)
     34c:	00b50c63          	beq	a0,a1,364 <blocked_running>
     350:	0481a583          	lw	a1,72(gp)
     354:	00700613          	li	a2,7
     358:	02818693          	addi	a3,gp,40
     35c:	f5dff0ef          	jal	2b8 <enqueue>
     360:	04b1a423          	sw	a1,72(gp)

00000364 <blocked_running>:
     364:	00012083          	lw	ra,0(sp)
     368:	00410113          	addi	sp,sp,4
     36c:	00008067          	ret

00000370 <run_process>:
     370:	00050293          	mv	t0,a0
     374:	0082a303          	lw	t1,8(t0) # 10013008 <UART_0+0x8>
     378:	00235313          	srli	t1,t1,0x2
     37c:	00328383          	lb	t2,3(t0)
     380:	00100e13          	li	t3,1
     384:	007e5e63          	bge	t3,t2,3a0 <set_pmp_addr0>
     388:	02000e37          	lui	t3,0x2000
     38c:	fffe0e13          	addi	t3,t3,-1 # 1ffffff <pmp_set_high>
     390:	01a00f13          	li	t5,26
     394:	407f0f33          	sub	t5,t5,t2
     398:	01ee5e33          	srl	t3,t3,t5
     39c:	01c36333          	or	t1,t1,t3

000003a0 <set_pmp_addr0>:
     3a0:	3b031073          	csrw	pmpaddr0,t1
     3a4:	00c2a303          	lw	t1,12(t0)
     3a8:	00235313          	srli	t1,t1,0x2
     3ac:	eff37313          	andi	t1,t1,-257
     3b0:	0ff36313          	ori	t1,t1,255
     3b4:	3b131073          	csrw	pmpaddr1,t1
     3b8:	000023b7          	lui	t2,0x2
     3bc:	b0038393          	addi	t2,t2,-1280 # 1b00 <pmp_data>
     3c0:	00328303          	lb	t1,3(t0)
     3c4:	00030663          	beqz	t1,3d0 <set_na4>
     3c8:	01d3e393          	ori	t2,t2,29
     3cc:	0080006f          	j	3d4 <set_pmp_cfg>

000003d0 <set_na4>:
     3d0:	0153e393          	ori	t2,t2,21

000003d4 <set_pmp_cfg>:
     3d4:	3a039073          	csrw	pmpcfg0,t2
     3d8:	00028123          	sb	zero,2(t0)
     3dc:	0042a303          	lw	t1,4(t0)
     3e0:	34131073          	csrw	mepc,t1
     3e4:	0102a083          	lw	ra,16(t0)
     3e8:	0182a183          	lw	gp,24(t0)
     3ec:	01c2a203          	lw	tp,28(t0)
     3f0:	02c2a403          	lw	s0,44(t0)
     3f4:	0302a483          	lw	s1,48(t0)
     3f8:	0342a503          	lw	a0,52(t0)
     3fc:	0382a583          	lw	a1,56(t0)
     400:	03c2a603          	lw	a2,60(t0)
     404:	0402a683          	lw	a3,64(t0)
     408:	0442a703          	lw	a4,68(t0)
     40c:	0482a783          	lw	a5,72(t0)
     410:	04c2a803          	lw	a6,76(t0)
     414:	0502a883          	lw	a7,80(t0)
     418:	0542a903          	lw	s2,84(t0)
     41c:	0582a983          	lw	s3,88(t0)
     420:	05c2aa03          	lw	s4,92(t0)
     424:	0602aa83          	lw	s5,96(t0)
     428:	0642ab03          	lw	s6,100(t0)
     42c:	0682ab83          	lw	s7,104(t0)
     430:	06c2ac03          	lw	s8,108(t0)
     434:	0702ac83          	lw	s9,112(t0)
     438:	0742ad03          	lw	s10,116(t0)
     43c:	0782ad83          	lw	s11,120(t0)
     440:	0802ae83          	lw	t4,128(t0)
     444:	0842af03          	lw	t5,132(t0)
     448:	0882af83          	lw	t6,136(t0)
     44c:	34011073          	csrw	mscratch,sp
     450:	0142a103          	lw	sp,20(t0)
     454:	0200c337          	lui	t1,0x200c
     458:	ff830313          	addi	t1,t1,-8 # 200bff8 <CLINT+0xbff8>
     45c:	00432383          	lw	t2,4(t1)
     460:	00032303          	lw	t1,0(t1)
     464:	66600e93          	li	t4,1638
     468:	01d30e33          	add	t3,t1,t4
     46c:	006e3333          	sltu	t1,t3,t1
     470:	006383b3          	add	t2,t2,t1
     474:	02004337          	lui	t1,0x2004
     478:	00732223          	sw	t2,4(t1) # 2004004 <CLINT+0x4004>
     47c:	01c32023          	sw	t3,0(t1)
     480:	0242a303          	lw	t1,36(t0)
     484:	0282a383          	lw	t2,40(t0)
     488:	07c2ae03          	lw	t3,124(t0)
     48c:	0202a283          	lw	t0,32(t0)
     490:	30200073          	mret

00000494 <save_state>:
     494:	ff410113          	addi	sp,sp,-12
     498:	00312423          	sw	gp,8(sp)
     49c:	00512223          	sw	t0,4(sp)
     4a0:	00612023          	sw	t1,0(sp)
     4a4:	800001b7          	lui	gp,0x80000
     4a8:	0041a283          	lw	t0,4(gp) # 80000004 <DTIM+0x4>
     4ac:	00812303          	lw	t1,8(sp)
     4b0:	0062ac23          	sw	t1,24(t0)
     4b4:	00412303          	lw	t1,4(sp)
     4b8:	0262a023          	sw	t1,32(t0)
     4bc:	00012303          	lw	t1,0(sp)
     4c0:	0262a223          	sw	t1,36(t0)
     4c4:	00c10113          	addi	sp,sp,12
     4c8:	00012303          	lw	t1,0(sp)
     4cc:	0062a823          	sw	t1,16(t0)
     4d0:	00410113          	addi	sp,sp,4
     4d4:	34002373          	csrr	t1,mscratch
     4d8:	0062aa23          	sw	t1,20(t0)
     4dc:	0042ae23          	sw	tp,28(t0)
     4e0:	0272a423          	sw	t2,40(t0)
     4e4:	0282a623          	sw	s0,44(t0)
     4e8:	0292a823          	sw	s1,48(t0)
     4ec:	02a2aa23          	sw	a0,52(t0)
     4f0:	02b2ac23          	sw	a1,56(t0)
     4f4:	02c2ae23          	sw	a2,60(t0)
     4f8:	04d2a023          	sw	a3,64(t0)
     4fc:	04e2a223          	sw	a4,68(t0)
     500:	04f2a423          	sw	a5,72(t0)
     504:	0502a623          	sw	a6,76(t0)
     508:	0512a823          	sw	a7,80(t0)
     50c:	0522aa23          	sw	s2,84(t0)
     510:	0532ac23          	sw	s3,88(t0)
     514:	0542ae23          	sw	s4,92(t0)
     518:	0752a023          	sw	s5,96(t0)
     51c:	0762a223          	sw	s6,100(t0)
     520:	0772a423          	sw	s7,104(t0)
     524:	0782a623          	sw	s8,108(t0)
     528:	0792a823          	sw	s9,112(t0)
     52c:	07a2aa23          	sw	s10,116(t0)
     530:	07b2ac23          	sw	s11,120(t0)
     534:	07c2ae23          	sw	t3,124(t0)
     538:	09d2a023          	sw	t4,128(t0)
     53c:	09e2a223          	sw	t5,132(t0)
     540:	09f2a423          	sw	t6,136(t0)
     544:	34102373          	csrr	t1,mepc
     548:	0062a223          	sw	t1,4(t0)
     54c:	00228303          	lb	t1,2(t0)
     550:	00601663          	bne	zero,t1,55c <not_running>
     554:	00100393          	li	t2,1
     558:	00728123          	sb	t2,2(t0)

0000055c <not_running>:
     55c:	00028513          	mv	a0,t0
     560:	00008067          	ret
     564:	00000013          	nop
     568:	00000013          	nop
     56c:	00000013          	nop
     570:	00000013          	nop
     574:	00000013          	nop
     578:	00000013          	nop
     57c:	00000013          	nop
     580:	00000013          	nop
     584:	00000013          	nop
     588:	00000013          	nop
     58c:	00000013          	nop
     590:	00000013          	nop
     594:	00000013          	nop
     598:	00000013          	nop
     59c:	00000013          	nop

000005a0 <trap_handler>:
     5a0:	0300006f          	j	5d0 <sync_trap>
     5a4:	00000013          	nop
     5a8:	00000013          	nop
     5ac:	3c80006f          	j	974 <m_soft_intr>
     5b0:	00000013          	nop
     5b4:	00000013          	nop
     5b8:	00000013          	nop
     5bc:	3bc0006f          	j	978 <m_timr_intr>
     5c0:	00000013          	nop
     5c4:	00000013          	nop
     5c8:	00000013          	nop
     5cc:	4280006f          	j	9f4 <m_extr_intr>

000005d0 <sync_trap>:
     5d0:	300022f3          	csrr	t0,mstatus
     5d4:	00b2d293          	srli	t0,t0,0xb
     5d8:	0012f293          	andi	t0,t0,1
     5dc:	00029a63          	bnez	t0,5f0 <trap_from_m_mode>
     5e0:	34011173          	csrrw	sp,mscratch,sp
     5e4:	ffc10113          	addi	sp,sp,-4
     5e8:	00312023          	sw	gp,0(sp)
     5ec:	800001b7          	lui	gp,0x80000

000005f0 <trap_from_m_mode>:
     5f0:	342022f3          	csrr	t0,mcause
     5f4:	00229293          	slli	t0,t0,0x2
     5f8:	00000317          	auipc	t1,0x0
     5fc:	00030313          	mv	t1,t1
     600:	006282b3          	add	t0,t0,t1
     604:	00028067          	jr	t0

00000608 <sync_trap_jmp_tbl>:
     608:	0300006f          	j	638 <instr_addr_misaligned>
     60c:	03c0006f          	j	648 <instr_access_fault>
     610:	0480006f          	j	658 <illegal_instruction>
     614:	0540006f          	j	668 <breakpoint>
     618:	0600006f          	j	678 <ldr_addr_misaligned>
     61c:	06c0006f          	j	688 <ldr_access_fault>
     620:	0780006f          	j	698 <str_amo_addr_misaligned>
     624:	0840006f          	j	6a8 <str_amo_access_fault>
     628:	0900006f          	j	6b8 <u_env_call>
     62c:	00000013          	nop
     630:	00000013          	nop
     634:	0b80006f          	j	6ec <m_env_call>

00000638 <instr_addr_misaligned>:
     638:	00000517          	auipc	a0,0x0
     63c:	00050513          	mv	a0,a0
     640:	cc1ff0ef          	jal	300 <print_const>
     644:	0000006f          	j	644 <instr_addr_misaligned+0xc>

00000648 <instr_access_fault>:
     648:	00000517          	auipc	a0,0x0
     64c:	00050513          	mv	a0,a0
     650:	cb1ff0ef          	jal	300 <print_const>
     654:	0000006f          	j	654 <instr_access_fault+0xc>

00000658 <illegal_instruction>:
     658:	00000517          	auipc	a0,0x0
     65c:	00050513          	mv	a0,a0
     660:	ca1ff0ef          	jal	300 <print_const>
     664:	0000006f          	j	664 <illegal_instruction+0xc>

00000668 <breakpoint>:
     668:	00000517          	auipc	a0,0x0
     66c:	00050513          	mv	a0,a0
     670:	c91ff0ef          	jal	300 <print_const>
     674:	2e00006f          	j	954 <sync_trap_exit>

00000678 <ldr_addr_misaligned>:
     678:	00000517          	auipc	a0,0x0
     67c:	00050513          	mv	a0,a0
     680:	c81ff0ef          	jal	300 <print_const>
     684:	0000006f          	j	684 <ldr_addr_misaligned+0xc>

00000688 <ldr_access_fault>:
     688:	00000517          	auipc	a0,0x0
     68c:	00050513          	mv	a0,a0
     690:	c71ff0ef          	jal	300 <print_const>
     694:	0000006f          	j	694 <ldr_access_fault+0xc>

00000698 <str_amo_addr_misaligned>:
     698:	00000517          	auipc	a0,0x0
     69c:	00050513          	mv	a0,a0
     6a0:	c61ff0ef          	jal	300 <print_const>
     6a4:	0000006f          	j	6a4 <str_amo_addr_misaligned+0xc>

000006a8 <str_amo_access_fault>:
     6a8:	00000517          	auipc	a0,0x0
     6ac:	00050513          	mv	a0,a0
     6b0:	c51ff0ef          	jal	300 <print_const>
     6b4:	0000006f          	j	6b4 <str_amo_access_fault+0xc>

000006b8 <u_env_call>:
     6b8:	00500293          	li	t0,5
     6bc:	2712c863          	blt	t0,a7,92c <u_ecall_inv_code>
     6c0:	00289893          	slli	a7,a7,0x2
     6c4:	00000297          	auipc	t0,0x0
     6c8:	00028293          	mv	t0,t0
     6cc:	011282b3          	add	t0,t0,a7
     6d0:	00028067          	jr	t0 # 6c4 <u_env_call+0xc>

000006d4 <u_env_call_tbl>:
     6d4:	03c0006f          	j	710 <set_led>
     6d8:	0500006f          	j	728 <exit_process>
     6dc:	1380006f          	j	814 <create_process>
     6e0:	0640006f          	j	744 <print>
     6e4:	1200006f          	j	804 <yield>
     6e8:	0d40006f          	j	7bc <scan>

000006ec <m_env_call>:
     6ec:	00100293          	li	t0,1
     6f0:	2512c663          	blt	t0,a7,93c <m_ecall_inv_code>
     6f4:	00289893          	slli	a7,a7,0x2
     6f8:	00000297          	auipc	t0,0x0
     6fc:	00028293          	mv	t0,t0
     700:	011282b3          	add	t0,t0,a7
     704:	00028067          	jr	t0 # 6f8 <m_env_call+0xc>

00000708 <m_env_call_tbl>:
     708:	10c0006f          	j	814 <create_process>
     70c:	1e80006f          	j	8f4 <start_scheduler>

00000710 <set_led>:
     710:	00050613          	mv	a2,a0
     714:	10012537          	lui	a0,0x10012
     718:	00c50513          	addi	a0,a0,12 # 1001200c <GPIO+0xc>
     71c:	006805b7          	lui	a1,0x680
     720:	b81ff0ef          	jal	2a0 <set_mem>
     724:	2240006f          	j	948 <sync_ecall_exit>

00000728 <exit_process>:
     728:	00300293          	li	t0,3
     72c:	0041a303          	lw	t1,4(gp) # 80000004 <DTIM+0x4>
     730:	00530123          	sb	t0,2(t1) # 5fa <trap_from_m_mode+0xa>
     734:	02004337          	lui	t1,0x2004
     738:	00032223          	sw	zero,4(t1) # 2004004 <CLINT+0x4004>
     73c:	00032023          	sw	zero,0(t1)
     740:	2140006f          	j	954 <sync_trap_exit>

00000744 <print>:
     744:	ffc10113          	addi	sp,sp,-4
     748:	00812023          	sw	s0,0(sp)
     74c:	00050413          	mv	s0,a0
     750:	0041a503          	lw	a0,4(gp)
     754:	bcdff0ef          	jal	320 <block_process>
     758:	0041a503          	lw	a0,4(gp)
     75c:	4441a583          	lw	a1,1092(gp)
     760:	00700613          	li	a2,7
     764:	42418693          	addi	a3,gp,1060
     768:	b51ff0ef          	jal	2b8 <enqueue>
     76c:	44b1a223          	sw	a1,1092(gp)
     770:	00040513          	mv	a0,s0
     774:	4681a583          	lw	a1,1128(gp)
     778:	00700613          	li	a2,7
     77c:	44818693          	addi	a3,gp,1096
     780:	b39ff0ef          	jal	2b8 <enqueue>
     784:	46b1a423          	sw	a1,1128(gp)
     788:	46c1a303          	lw	t1,1132(gp)
     78c:	00130393          	addi	t2,t1,1
     790:	4671a623          	sw	t2,1132(gp)
     794:	00601e63          	bne	zero,t1,7b0 <print_enabled>
     798:	10013537          	lui	a0,0x10013
     79c:	01050513          	addi	a0,a0,16 # 10013010 <UART_0+0x10>
     7a0:	00100593          	li	a1,1
     7a4:	00058613          	mv	a2,a1
     7a8:	af9ff0ef          	jal	2a0 <set_mem>
     7ac:	4681a823          	sw	s0,1136(gp)

000007b0 <print_enabled>:
     7b0:	00012403          	lw	s0,0(sp)
     7b4:	00410113          	addi	sp,sp,4
     7b8:	1900006f          	j	948 <sync_ecall_exit>

000007bc <scan>:
     7bc:	02058063          	beqz	a1,7dc <no_scan_msg>
     7c0:	fff58593          	addi	a1,a1,-1 # 67ffff <plic_claim+0x47fffb>
     7c4:	100133b7          	lui	t2,0x10013

000007c8 <scan_print>:
     7c8:	00158593          	addi	a1,a1,1
     7cc:	00058283          	lb	t0,0(a1)

000007d0 <scan_busy_print>:
     7d0:	4053a32f          	amoor.w	t1,t0,(t2)
     7d4:	fe601ee3          	bne	zero,t1,7d0 <scan_busy_print>
     7d8:	fe5018e3          	bne	zero,t0,7c8 <scan_print>

000007dc <no_scan_msg>:
     7dc:	80000e37          	lui	t3,0x80000
     7e0:	100133b7          	lui	t2,0x10013
     7e4:	00438393          	addi	t2,t2,4 # 10013004 <UART_0+0x4>

000007e8 <scan_busy_scan>:
     7e8:	0003a283          	lw	t0,0(t2)
     7ec:	01c2feb3          	and	t4,t0,t3
     7f0:	fe0e9ce3          	bnez	t4,7e8 <scan_busy_scan>
     7f4:	00550023          	sb	t0,0(a0)
     7f8:	00150513          	addi	a0,a0,1
     7fc:	fe5016e3          	bne	zero,t0,7e8 <scan_busy_scan>
     800:	1480006f          	j	948 <sync_ecall_exit>

00000804 <yield>:
     804:	02004337          	lui	t1,0x2004
     808:	00032223          	sw	zero,4(t1) # 2004004 <CLINT+0x4004>
     80c:	00032023          	sw	zero,0(t1)
     810:	1380006f          	j	948 <sync_ecall_exit>

00000814 <create_process>:
     814:	01a00293          	li	t0,26
     818:	0aa2c063          	blt	t0,a0,8b8 <text_limit_exceeded>
     81c:	00000297          	auipc	t0,0x0
     820:	00028293          	mv	t0,t0
     824:	0a55e463          	bltu	a1,t0,8cc <invalid_text_range>
     828:	400002b7          	lui	t0,0x40000
     82c:	fff28293          	addi	t0,t0,-1 # 3fffffff <QSPI_FLASH_MAX>
     830:	08b2ce63          	blt	t0,a1,8cc <invalid_text_range>
     834:	0001a283          	lw	t0,0(gp)
     838:	00700313          	li	t1,7
     83c:	0a62d263          	bge	t0,t1,8e0 <max_processes_called>
     840:	00128293          	addi	t0,t0,1
     844:	0051a023          	sw	t0,0(gp)
     848:	0241a283          	lw	t0,36(gp)
     84c:	0002a303          	lw	t1,0(t0)
     850:	00428293          	addi	t0,t0,4
     854:	0251a223          	sw	t0,36(gp)
     858:	42018283          	lb	t0,1056(gp)
     85c:	00530023          	sb	t0,0(t1)
     860:	00128293          	addi	t0,t0,1
     864:	42518023          	sb	t0,1056(gp)
     868:	00418283          	lb	t0,4(gp)
     86c:	005300a3          	sb	t0,1(t1)
     870:	00100293          	li	t0,1
     874:	00530123          	sb	t0,2(t1)
     878:	00a301a3          	sb	a0,3(t1)
     87c:	00b32223          	sw	a1,4(t1)
     880:	00b32423          	sw	a1,8(t1)
     884:	00c32283          	lw	t0,12(t1)
     888:	00532c23          	sw	t0,24(t1)
     88c:	000013b7          	lui	t2,0x1
     890:	80038393          	addi	t2,t2,-2048 # 800 <scan_busy_scan+0x18>
     894:	007282b3          	add	t0,t0,t2
     898:	00532a23          	sw	t0,20(t1)
     89c:	00030513          	mv	a0,t1
     8a0:	0481a583          	lw	a1,72(gp)
     8a4:	00700613          	li	a2,7
     8a8:	02818693          	addi	a3,gp,40
     8ac:	a0dff0ef          	jal	2b8 <enqueue>
     8b0:	04b1a423          	sw	a1,72(gp)
     8b4:	0940006f          	j	948 <sync_ecall_exit>

000008b8 <text_limit_exceeded>:
     8b8:	00000517          	auipc	a0,0x0
     8bc:	00050513          	mv	a0,a0
     8c0:	a41ff0ef          	jal	300 <print_const>
     8c4:	fff00513          	li	a0,-1
     8c8:	0800006f          	j	948 <sync_ecall_exit>

000008cc <invalid_text_range>:
     8cc:	00000517          	auipc	a0,0x0
     8d0:	00050513          	mv	a0,a0
     8d4:	a2dff0ef          	jal	300 <print_const>
     8d8:	fff00513          	li	a0,-1
     8dc:	06c0006f          	j	948 <sync_ecall_exit>

000008e0 <max_processes_called>:
     8e0:	00000517          	auipc	a0,0x0
     8e4:	00050513          	mv	a0,a0
     8e8:	a19ff0ef          	jal	300 <print_const>
     8ec:	fff00513          	li	a0,-1
     8f0:	0580006f          	j	948 <sync_ecall_exit>

000008f4 <start_scheduler>:
     8f4:	08000313          	li	t1,128
     8f8:	30432073          	csrs	mie,t1
     8fc:	08000313          	li	t1,128
     900:	30032073          	csrs	mstatus,t1
     904:	00002337          	lui	t1,0x2
     908:	80030313          	addi	t1,t1,-2048 # 1800 <mpp_sel>
     90c:	30033073          	csrc	mstatus,t1
     910:	0441a583          	lw	a1,68(gp)
     914:	00700613          	li	a2,7
     918:	02818693          	addi	a3,gp,40
     91c:	9b9ff0ef          	jal	2d4 <dequeue>
     920:	04b1a223          	sw	a1,68(gp)
     924:	00a1a223          	sw	a0,4(gp)
     928:	a49ff06f          	j	370 <run_process>

0000092c <u_ecall_inv_code>:
     92c:	00000517          	auipc	a0,0x0
     930:	00050513          	mv	a0,a0
     934:	9cdff0ef          	jal	300 <print_const>
     938:	0100006f          	j	948 <sync_ecall_exit>

0000093c <m_ecall_inv_code>:
     93c:	00000517          	auipc	a0,0x0
     940:	00050513          	mv	a0,a0
     944:	9bdff0ef          	jal	300 <print_const>

00000948 <sync_ecall_exit>:
     948:	341022f3          	csrr	t0,mepc
     94c:	00428293          	addi	t0,t0,4
     950:	34129073          	csrw	mepc,t0

00000954 <sync_trap_exit>:
     954:	300022f3          	csrr	t0,mstatus
     958:	00b2d293          	srli	t0,t0,0xb
     95c:	0012f293          	andi	t0,t0,1
     960:	00029863          	bnez	t0,970 <t_exit>
     964:	00012183          	lw	gp,0(sp)
     968:	00410113          	addi	sp,sp,4
     96c:	34011173          	csrrw	sp,mscratch,sp

00000970 <t_exit>:
     970:	30200073          	mret

00000974 <m_soft_intr>:
     974:	30200073          	mret

00000978 <m_timr_intr>:
     978:	3a001073          	csrw	pmpcfg0,zero
     97c:	0000100f          	fence.i
     980:	34011173          	csrrw	sp,mscratch,sp
     984:	ffc10113          	addi	sp,sp,-4
     988:	00112023          	sw	ra,0(sp)
     98c:	b09ff0ef          	jal	494 <save_state>
     990:	800001b7          	lui	gp,0x80000
     994:	00250283          	lb	t0,2(a0) # 93e <m_ecall_inv_code+0x2>
     998:	00100313          	li	t1,1
     99c:	00629c63          	bne	t0,t1,9b4 <not_ready>
     9a0:	0481a583          	lw	a1,72(gp) # 80000048 <DTIM+0x48>
     9a4:	00700613          	li	a2,7
     9a8:	02818693          	addi	a3,gp,40
     9ac:	90dff0ef          	jal	2b8 <enqueue>
     9b0:	04b1a423          	sw	a1,72(gp)

000009b4 <not_ready>:
     9b4:	00300313          	li	t1,3
     9b8:	02629063          	bne	t0,t1,9d8 <not_terminated>
     9bc:	0241a303          	lw	t1,36(gp)
     9c0:	ffc30313          	addi	t1,t1,-4
     9c4:	00a32023          	sw	a0,0(t1)
     9c8:	0261a223          	sw	t1,36(gp)
     9cc:	0001a303          	lw	t1,0(gp)
     9d0:	fff30313          	addi	t1,t1,-1
     9d4:	0061a023          	sw	t1,0(gp)

000009d8 <not_terminated>:
     9d8:	0441a583          	lw	a1,68(gp)
     9dc:	00700613          	li	a2,7
     9e0:	02818693          	addi	a3,gp,40
     9e4:	8f1ff0ef          	jal	2d4 <dequeue>
     9e8:	04b1a223          	sw	a1,68(gp)
     9ec:	00a1a223          	sw	a0,4(gp)
     9f0:	981ff06f          	j	370 <run_process>

000009f4 <m_extr_intr>:
     9f4:	34011173          	csrrw	sp,mscratch,sp
     9f8:	fd810113          	addi	sp,sp,-40
     9fc:	02e12223          	sw	a4,36(sp)
     a00:	02812023          	sw	s0,32(sp)
     a04:	00912e23          	sw	s1,28(sp)
     a08:	01212c23          	sw	s2,24(sp)
     a0c:	01312a23          	sw	s3,20(sp)
     a10:	00a12823          	sw	a0,16(sp)
     a14:	00b12623          	sw	a1,12(sp)
     a18:	00c12423          	sw	a2,8(sp)
     a1c:	00d12223          	sw	a3,4(sp)
     a20:	00312023          	sw	gp,0(sp)
     a24:	800001b7          	lui	gp,0x80000
     a28:	0c2009b7          	lui	s3,0xc200
     a2c:	00498993          	addi	s3,s3,4 # c200004 <PLIC+0x200004>
     a30:	0009a983          	lw	s3,0(s3)
     a34:	ffc10113          	addi	sp,sp,-4
     a38:	01312023          	sw	s3,0(sp)
     a3c:	00299413          	slli	s0,s3,0x2
     a40:	00000497          	auipc	s1,0x0
     a44:	00048493          	mv	s1,s1
     a48:	00940433          	add	s0,s0,s1
     a4c:	00040067          	jr	s0

00000a50 <ext_intr_tbl>:
     a50:	00000013          	nop
     a54:	00000013          	nop
     a58:	00000013          	nop
     a5c:	04c0006f          	j	aa8 <uart0_ext_intr>

00000a60 <exit_ext_intr>:
     a60:	00012903          	lw	s2,0(sp)
     a64:	00410113          	addi	sp,sp,4
     a68:	0c2009b7          	lui	s3,0xc200
     a6c:	00498993          	addi	s3,s3,4 # c200004 <PLIC+0x200004>
     a70:	0129a023          	sw	s2,0(s3)
     a74:	00012183          	lw	gp,0(sp)
     a78:	00412683          	lw	a3,4(sp)
     a7c:	00812603          	lw	a2,8(sp)
     a80:	00c12583          	lw	a1,12(sp)
     a84:	01012503          	lw	a0,16(sp)
     a88:	01412983          	lw	s3,20(sp)
     a8c:	01812903          	lw	s2,24(sp)
     a90:	01c12483          	lw	s1,28(sp)
     a94:	02012403          	lw	s0,32(sp)
     a98:	02412703          	lw	a4,36(sp)
     a9c:	02810113          	addi	sp,sp,40
     aa0:	34002173          	csrr	sp,mscratch
     aa4:	30200073          	mret

00000aa8 <uart0_ext_intr>:
     aa8:	10013437          	lui	s0,0x10013
     aac:	4701a483          	lw	s1,1136(gp) # 80000470 <DTIM+0x470>
     ab0:	fff48493          	addi	s1,s1,-1 # a3f <m_extr_intr+0x4b>

00000ab4 <uart_print_loop>:
     ab4:	00148493          	addi	s1,s1,1
     ab8:	00048903          	lb	s2,0(s1)
     abc:	412429af          	amoor.w	s3,s2,(s0)
     ac0:	07301863          	bne	zero,s3,b30 <tx_q_full>
     ac4:	ff2018e3          	bne	zero,s2,ab4 <uart_print_loop>
     ac8:	4641a583          	lw	a1,1124(gp)
     acc:	00700613          	li	a2,7
     ad0:	44818693          	addi	a3,gp,1096
     ad4:	801ff0ef          	jal	2d4 <dequeue>
     ad8:	46b1a223          	sw	a1,1124(gp)
     adc:	4401a583          	lw	a1,1088(gp)
     ae0:	00700613          	li	a2,7
     ae4:	42418693          	addi	a3,gp,1060
     ae8:	fecff0ef          	jal	2d4 <dequeue>
     aec:	44b1a023          	sw	a1,1088(gp)
     af0:	849ff0ef          	jal	338 <unblock_process>
     af4:	46c1a483          	lw	s1,1132(gp)
     af8:	fff48493          	addi	s1,s1,-1
     afc:	4691a623          	sw	s1,1132(gp)
     b00:	00900c63          	beq	zero,s1,b18 <queue_empty>
     b04:	4641a583          	lw	a1,1124(gp)
     b08:	44818613          	addi	a2,gp,1096
     b0c:	fe4ff0ef          	jal	2f0 <get_head>
     b10:	46a1a823          	sw	a0,1136(gp)
     b14:	f4dff06f          	j	a60 <exit_ext_intr>

00000b18 <queue_empty>:
     b18:	10013537          	lui	a0,0x10013
     b1c:	01050513          	addi	a0,a0,16 # 10013010 <UART_0+0x10>
     b20:	00100593          	li	a1,1
     b24:	00000613          	li	a2,0
     b28:	f78ff0ef          	jal	2a0 <set_mem>
     b2c:	f35ff06f          	j	a60 <exit_ext_intr>

00000b30 <tx_q_full>:
     b30:	4691a823          	sw	s1,1136(gp)
     b34:	f2dff06f          	j	a60 <exit_ext_intr>

00000b38 <user_section>:
     b38:	00000013          	nop

00000b3c <dummy>:
     b3c:	00000013          	nop
     b40:	ffdff06f          	j	b3c <dummy>
     b44:	00000013          	nop
     b48:	00000013          	nop
     b4c:	00000013          	nop
     b50:	00000013          	nop
     b54:	00000013          	nop
     b58:	00000013          	nop
     b5c:	00000013          	nop
     b60:	00000013          	nop
     b64:	00000013          	nop
     b68:	00000013          	nop
     b6c:	00000013          	nop
     b70:	00000013          	nop
     b74:	00000013          	nop
     b78:	00000013          	nop
     b7c:	00000013          	nop
     b80:	00000013          	nop
     b84:	00000013          	nop
     b88:	00000013          	nop
     b8c:	00000013          	nop
     b90:	00000013          	nop
     b94:	00000013          	nop
     b98:	00000013          	nop
     b9c:	00000013          	nop
     ba0:	00000013          	nop
     ba4:	00000013          	nop
     ba8:	00000013          	nop
     bac:	00000013          	nop
     bb0:	00000013          	nop
     bb4:	00000013          	nop
     bb8:	00000013          	nop
     bbc:	00000013          	nop
     bc0:	00000013          	nop
     bc4:	00000013          	nop
     bc8:	00000013          	nop
     bcc:	00000013          	nop
     bd0:	00000013          	nop
     bd4:	00000013          	nop
     bd8:	00000013          	nop
     bdc:	00000013          	nop
     be0:	00000013          	nop
     be4:	00000013          	nop
     be8:	00000013          	nop
     bec:	00000013          	nop
     bf0:	00000013          	nop
     bf4:	00000013          	nop
     bf8:	00000013          	nop
     bfc:	00000013          	nop
     c00:	00000013          	nop
     c04:	00000013          	nop
     c08:	00000013          	nop
     c0c:	00000013          	nop
     c10:	00000013          	nop
     c14:	00000013          	nop
     c18:	00000013          	nop
     c1c:	00000013          	nop
     c20:	00000013          	nop
     c24:	00000013          	nop
     c28:	00000013          	nop
     c2c:	00000013          	nop
     c30:	00000013          	nop
     c34:	00000013          	nop
     c38:	00000013          	nop
     c3c:	00000013          	nop
     c40:	00000013          	nop
     c44:	00000013          	nop
     c48:	00000013          	nop
     c4c:	00000013          	nop
     c50:	00000013          	nop
     c54:	00000013          	nop
     c58:	00000013          	nop
     c5c:	00000013          	nop
     c60:	00000013          	nop
     c64:	00000013          	nop
     c68:	00000013          	nop
     c6c:	00000013          	nop
     c70:	00000013          	nop
     c74:	00000013          	nop
     c78:	00000013          	nop
     c7c:	00000013          	nop
     c80:	00000013          	nop
     c84:	00000013          	nop
     c88:	00000013          	nop
     c8c:	00000013          	nop
     c90:	00000013          	nop
     c94:	00000013          	nop
     c98:	00000013          	nop
     c9c:	00000013          	nop
     ca0:	00000013          	nop
     ca4:	00000013          	nop
     ca8:	00000013          	nop
     cac:	00000013          	nop
     cb0:	00000013          	nop
     cb4:	00000013          	nop
     cb8:	00000013          	nop
     cbc:	00000013          	nop
     cc0:	00000013          	nop
     cc4:	00000013          	nop
     cc8:	00000013          	nop
     ccc:	00000013          	nop
     cd0:	00000013          	nop
     cd4:	00000013          	nop
     cd8:	00000013          	nop
     cdc:	00000013          	nop
     ce0:	00000013          	nop
     ce4:	00000013          	nop
     ce8:	00000013          	nop
     cec:	00000013          	nop
     cf0:	00000013          	nop
     cf4:	00000013          	nop
     cf8:	00000013          	nop
     cfc:	00000013          	nop
     d00:	00000013          	nop
     d04:	00000013          	nop
     d08:	00000013          	nop
     d0c:	00000013          	nop
     d10:	00000013          	nop
     d14:	00000013          	nop
     d18:	00000013          	nop
     d1c:	00000013          	nop
     d20:	00000013          	nop
     d24:	00000013          	nop
     d28:	00000013          	nop
     d2c:	00000013          	nop
     d30:	00000013          	nop
     d34:	00000013          	nop
     d38:	00000013          	nop
     d3c:	00000013          	nop
     d40:	00000013          	nop
     d44:	00000013          	nop
     d48:	00000013          	nop
     d4c:	00000013          	nop
     d50:	00000013          	nop
     d54:	00000013          	nop
     d58:	00000013          	nop
     d5c:	00000013          	nop
     d60:	00000013          	nop
     d64:	00000013          	nop
     d68:	00000013          	nop
     d6c:	00000013          	nop
     d70:	00000013          	nop
     d74:	00000013          	nop
     d78:	00000013          	nop
     d7c:	00000013          	nop
     d80:	00000013          	nop
     d84:	00000013          	nop
     d88:	00000013          	nop
     d8c:	00000013          	nop
     d90:	00000013          	nop
     d94:	00000013          	nop
     d98:	00000013          	nop
     d9c:	00000013          	nop
     da0:	00000013          	nop
     da4:	00000013          	nop
     da8:	00000013          	nop
     dac:	00000013          	nop
     db0:	00000013          	nop
     db4:	00000013          	nop
     db8:	00000013          	nop
     dbc:	00000013          	nop
     dc0:	00000013          	nop
     dc4:	00000013          	nop
     dc8:	00000013          	nop
     dcc:	00000013          	nop
     dd0:	00000013          	nop
     dd4:	00000013          	nop
     dd8:	00000013          	nop
     ddc:	00000013          	nop
     de0:	00000013          	nop
     de4:	00000013          	nop
     de8:	00000013          	nop
     dec:	00000013          	nop
     df0:	00000013          	nop
     df4:	00000013          	nop
     df8:	00000013          	nop
     dfc:	00000013          	nop
     e00:	00000013          	nop
     e04:	00000013          	nop
     e08:	00000013          	nop
     e0c:	00000013          	nop
     e10:	00000013          	nop
     e14:	00000013          	nop
     e18:	00000013          	nop
     e1c:	00000013          	nop
     e20:	00000013          	nop
     e24:	00000013          	nop
     e28:	00000013          	nop
     e2c:	00000013          	nop
     e30:	00000013          	nop
     e34:	00000013          	nop
     e38:	00000013          	nop
     e3c:	00000013          	nop
     e40:	00000013          	nop
     e44:	00000013          	nop
     e48:	00000013          	nop
     e4c:	00000013          	nop
     e50:	00000013          	nop
     e54:	00000013          	nop
     e58:	00000013          	nop
     e5c:	00000013          	nop
     e60:	00000013          	nop
     e64:	00000013          	nop
     e68:	00000013          	nop
     e6c:	00000013          	nop
     e70:	00000013          	nop
     e74:	00000013          	nop
     e78:	00000013          	nop
     e7c:	00000013          	nop
     e80:	00000013          	nop
     e84:	00000013          	nop
     e88:	00000013          	nop
     e8c:	00000013          	nop
     e90:	00000013          	nop
     e94:	00000013          	nop
     e98:	00000013          	nop
     e9c:	00000013          	nop
     ea0:	00000013          	nop
     ea4:	00000013          	nop
     ea8:	00000013          	nop
     eac:	00000013          	nop
     eb0:	00000013          	nop
     eb4:	00000013          	nop
     eb8:	00000013          	nop
     ebc:	00000013          	nop
     ec0:	00000013          	nop
     ec4:	00000013          	nop
     ec8:	00000013          	nop
     ecc:	00000013          	nop
     ed0:	00000013          	nop
     ed4:	00000013          	nop
     ed8:	00000013          	nop
     edc:	00000013          	nop
     ee0:	00000013          	nop
     ee4:	00000013          	nop
     ee8:	00000013          	nop
     eec:	00000013          	nop
     ef0:	00000013          	nop
     ef4:	00000013          	nop
     ef8:	00000013          	nop
     efc:	00000013          	nop
     f00:	00000013          	nop
     f04:	00000013          	nop
     f08:	00000013          	nop
     f0c:	00000013          	nop
     f10:	00000013          	nop
     f14:	00000013          	nop
     f18:	00000013          	nop
     f1c:	00000013          	nop
     f20:	00000013          	nop
     f24:	00000013          	nop
     f28:	00000013          	nop
     f2c:	00000013          	nop
     f30:	00000013          	nop
     f34:	00000013          	nop
     f38:	00000013          	nop
     f3c:	00000013          	nop

00000f40 <fib>:
     f40:	00018513          	mv	a0,gp
     f44:	00000597          	auipc	a1,0x0
     f48:	00058593          	mv	a1,a1
     f4c:	00500893          	li	a7,5
     f50:	00000073          	ecall
     f54:	00018593          	mv	a1,gp
     f58:	00058613          	mv	a2,a1
     f5c:	140000ef          	jal	109c <string_to_int_fib>
     f60:	034000ef          	jal	f94 <fibonacci>
     f64:	00018593          	mv	a1,gp
     f68:	08c000ef          	jal	ff4 <int_to_string_fib>
     f6c:	00018513          	mv	a0,gp
     f70:	00300893          	li	a7,3
     f74:	00000073          	ecall
     f78:	00000517          	auipc	a0,0x0
     f7c:	00050513          	mv	a0,a0
     f80:	00300893          	li	a7,3
     f84:	00000073          	ecall
     f88:	fb9ff06f          	j	f40 <fib>
     f8c:	00100893          	li	a7,1
     f90:	00000073          	ecall

00000f94 <fibonacci>:
     f94:	ffc10113          	addi	sp,sp,-4
     f98:	00112023          	sw	ra,0(sp)
     f9c:	00100293          	li	t0,1
     fa0:	00a2ca63          	blt	t0,a0,fb4 <fib_sc>
     fa4:	00028513          	mv	a0,t0
     fa8:	00012083          	lw	ra,0(sp)
     fac:	00410113          	addi	sp,sp,4
     fb0:	00008067          	ret

00000fb4 <fib_sc>:
     fb4:	ffc10113          	addi	sp,sp,-4
     fb8:	00812023          	sw	s0,0(sp)
     fbc:	fff50513          	addi	a0,a0,-1 # f77 <fib+0x37>
     fc0:	00050413          	mv	s0,a0
     fc4:	fd1ff0ef          	jal	f94 <fibonacci>
     fc8:	00050293          	mv	t0,a0
     fcc:	00040513          	mv	a0,s0
     fd0:	fff50513          	addi	a0,a0,-1
     fd4:	00028413          	mv	s0,t0
     fd8:	fbdff0ef          	jal	f94 <fibonacci>
     fdc:	00850533          	add	a0,a0,s0
     fe0:	00012403          	lw	s0,0(sp)
     fe4:	00410113          	addi	sp,sp,4
     fe8:	00012083          	lw	ra,0(sp)
     fec:	00410113          	addi	sp,sp,4
     ff0:	00008067          	ret

00000ff4 <int_to_string_fib>:
     ff4:	ffc10113          	addi	sp,sp,-4
     ff8:	00112023          	sw	ra,0(sp)
     ffc:	00000293          	li	t0,0
    1000:	00a00313          	li	t1,10
    1004:	00058393          	mv	t2,a1
    1008:	00055663          	bgez	a0,1014 <pos_num_fib>
    100c:	40a00533          	neg	a0,a0
    1010:	00100293          	li	t0,1

00001014 <pos_num_fib>:
    1014:	02656e33          	rem	t3,a0,t1
    1018:	030e0e13          	addi	t3,t3,48 # 80000030 <DTIM+0x30>
    101c:	01c58023          	sb	t3,0(a1) # f44 <fib+0x4>
    1020:	00158593          	addi	a1,a1,1
    1024:	02654533          	div	a0,a0,t1
    1028:	fea016e3          	bne	zero,a0,1014 <pos_num_fib>
    102c:	00500863          	beq	zero,t0,103c <pos_num_2_fib>
    1030:	02d00e13          	li	t3,45
    1034:	01c58023          	sb	t3,0(a1)
    1038:	00158593          	addi	a1,a1,1

0000103c <pos_num_2_fib>:
    103c:	00058023          	sb	zero,0(a1)
    1040:	00038593          	mv	a1,t2
    1044:	00058513          	mv	a0,a1
    1048:	010000ef          	jal	1058 <copy_reverse_string_fib>
    104c:	00012083          	lw	ra,0(sp)
    1050:	00410113          	addi	sp,sp,4
    1054:	00008067          	ret

00001058 <copy_reverse_string_fib>:
    1058:	fff50513          	addi	a0,a0,-1
    105c:	00010313          	mv	t1,sp

00001060 <cpr_loop_fib>:
    1060:	00150513          	addi	a0,a0,1
    1064:	00050283          	lb	t0,0(a0)
    1068:	fff10113          	addi	sp,sp,-1
    106c:	00510023          	sb	t0,0(sp)
    1070:	fe5018e3          	bne	zero,t0,1060 <cpr_loop_fib>
    1074:	fff58593          	addi	a1,a1,-1
    1078:	00110113          	addi	sp,sp,1

0000107c <cpr_loop_2_fib>:
    107c:	00158593          	addi	a1,a1,1
    1080:	00010283          	lb	t0,0(sp)
    1084:	00110113          	addi	sp,sp,1
    1088:	00558023          	sb	t0,0(a1)
    108c:	fe6118e3          	bne	sp,t1,107c <cpr_loop_2_fib>
    1090:	00158593          	addi	a1,a1,1
    1094:	00058023          	sb	zero,0(a1)
    1098:	00008067          	ret

0000109c <string_to_int_fib>:
    109c:	ffc10113          	addi	sp,sp,-4
    10a0:	00112023          	sw	ra,0(sp)
    10a4:	00058513          	mv	a0,a1
    10a8:	00060593          	mv	a1,a2
    10ac:	fadff0ef          	jal	1058 <copy_reverse_string_fib>
    10b0:	00060593          	mv	a1,a2
    10b4:	00058283          	lb	t0,0(a1)
    10b8:	02d00313          	li	t1,45
    10bc:	00000393          	li	t2,0
    10c0:	00531663          	bne	t1,t0,10cc <pos_num_3_fib>
    10c4:	00100393          	li	t2,1
    10c8:	00158593          	addi	a1,a1,1

000010cc <pos_num_3_fib>:
    10cc:	00000513          	li	a0,0
    10d0:	00100e13          	li	t3,1
    10d4:	00a00e93          	li	t4,10

000010d8 <st_t_i_loop_fib>:
    10d8:	00058283          	lb	t0,0(a1)
    10dc:	00500e63          	beq	zero,t0,10f8 <st_t_i_exit_fib>
    10e0:	fd028293          	addi	t0,t0,-48
    10e4:	03c282b3          	mul	t0,t0,t3
    10e8:	03de0e33          	mul	t3,t3,t4
    10ec:	00550533          	add	a0,a0,t0
    10f0:	00158593          	addi	a1,a1,1
    10f4:	fe5ff06f          	j	10d8 <st_t_i_loop_fib>

000010f8 <st_t_i_exit_fib>:
    10f8:	00012083          	lw	ra,0(sp)
    10fc:	00410113          	addi	sp,sp,4
    1100:	00008067          	ret

00001104 <fib_msg>:
    1104:	636c6143          	.insn	4, 0x636c6143
    1108:	6e20                	.insn	2, 0x6e20
    110a:	6874                	.insn	2, 0x6874
    110c:	6620                	.insn	2, 0x6620
    110e:	6269                	.insn	2, 0x6269
    1110:	6e20                	.insn	2, 0x6e20
    1112:	6d75                	.insn	2, 0x6d75
    1114:	0a3a                	.insn	2, 0x0a3a
	...

00001117 <fib_newl>:
    1117:	000a                	.insn	2, 0x000a
    1119:	00000013          	nop
    111d:	00000013          	nop
    1121:	00000013          	nop
    1125:	00000013          	nop
    1129:	00000013          	nop
    112d:	00000013          	nop
    1131:	00000013          	nop
    1135:	00000013          	nop
    1139:	00000013          	nop
    113d:	00000013          	nop
    1141:	00000013          	nop
    1145:	00000013          	nop
    1149:	00000013          	nop
    114d:	00000013          	nop
    1151:	00000013          	nop
    1155:	00000013          	nop
    1159:	00000013          	nop
    115d:	00000013          	nop
    1161:	00000013          	nop
    1165:	00000013          	nop
    1169:	00000013          	nop
    116d:	00000013          	nop
    1171:	00000013          	nop
    1175:	00000013          	nop
    1179:	00000013          	nop
    117d:	00000013          	nop
    1181:	00000013          	nop
    1185:	00000013          	nop
    1189:	00000013          	nop
    118d:	00000013          	nop
    1191:	00000013          	nop
    1195:	00000013          	nop
    1199:	00000013          	nop
    119d:	00000013          	nop
    11a1:	00000013          	nop
    11a5:	00000013          	nop
    11a9:	00000013          	nop
    11ad:	00000013          	nop
    11b1:	00000013          	nop
    11b5:	00000013          	nop
    11b9:	00000013          	nop
    11bd:	00000013          	nop
    11c1:	00000013          	nop
    11c5:	00000013          	nop
    11c9:	00000013          	nop
    11cd:	00000013          	nop
    11d1:	00000013          	nop
    11d5:	00000013          	nop
    11d9:	00000013          	nop
    11dd:	00000013          	nop
    11e1:	00000013          	nop
    11e5:	00000013          	nop
    11e9:	00000013          	nop
    11ed:	00000013          	nop
    11f1:	00000013          	nop
    11f5:	00000013          	nop
    11f9:	00000013          	nop
    11fd:	00000013          	nop
    1201:	00000013          	nop
    1205:	00000013          	nop
    1209:	00000013          	nop
    120d:	00000013          	nop
    1211:	00000013          	nop
    1215:	00000013          	nop
    1219:	00000013          	nop
    121d:	00000013          	nop
    1221:	00000013          	nop
    1225:	00000013          	nop
    1229:	00000013          	nop
    122d:	00000013          	nop
    1231:	00000013          	nop
    1235:	00000013          	nop
    1239:	00000013          	nop
    123d:	00000013          	nop
    1241:	00000013          	nop
    1245:	00000013          	nop
    1249:	00000013          	nop
    124d:	00000013          	nop
    1251:	00000013          	nop
    1255:	00000013          	nop
    1259:	00000013          	nop
    125d:	00000013          	nop
    1261:	00000013          	nop
    1265:	00000013          	nop
    1269:	00000013          	nop
    126d:	00000013          	nop
    1271:	00000013          	nop
    1275:	00000013          	nop
    1279:	00000013          	nop
    127d:	00000013          	nop
    1281:	00000013          	nop
    1285:	00000013          	nop
    1289:	00000013          	nop
    128d:	00000013          	nop
    1291:	00000013          	nop
    1295:	00000013          	nop
    1299:	00000013          	nop
    129d:	00000013          	nop
    12a1:	00000013          	nop
    12a5:	00000013          	nop
    12a9:	00000013          	nop
    12ad:	00000013          	nop
    12b1:	00000013          	nop
    12b5:	00000013          	nop
    12b9:	00000013          	nop
    12bd:	00000013          	nop
    12c1:	00000013          	nop
    12c5:	00000013          	nop
    12c9:	00000013          	nop
    12cd:	00000013          	nop
    12d1:	00000013          	nop
    12d5:	00000013          	nop
    12d9:	00000013          	nop
    12dd:	00000013          	nop
    12e1:	00000013          	nop
    12e5:	00000013          	nop
    12e9:	00000013          	nop
    12ed:	00000013          	nop
    12f1:	00000013          	nop
    12f5:	00000013          	nop
    12f9:	00000013          	nop
    12fd:	00000013          	nop
    1301:	00000013          	nop
    1305:	00000013          	nop
    1309:	00000013          	nop
    130d:	00000013          	nop
    1311:	00000013          	nop
    1315:	00000013          	nop
    1319:	00000013          	nop
    131d:	00000013          	nop
    1321:	00000013          	nop
    1325:	00000013          	nop
    1329:	00000013          	nop
    132d:	00000013          	nop
    1331:	00000013          	nop
    1335:	00000013          	nop
    1339:	00000013          	nop
    133d:	00000013          	nop
    1341:	00000013          	nop
    1345:	00000013          	nop
    1349:	00000013          	nop
    134d:	00000013          	nop
    1351:	00000013          	nop
    1355:	00000013          	nop
    1359:	00000013          	nop
    135d:	00000013          	nop
    1361:	00000013          	nop
    1365:	00000013          	nop
    1369:	00000013          	nop
    136d:	00000013          	nop
    1371:	00000013          	nop
    1375:	00000013          	nop
    1379:	00000013          	nop
    137d:	00000013          	nop
    1381:	00000013          	nop
    1385:	00000013          	nop
    1389:	00000013          	nop
    138d:	00000013          	nop
    1391:	00000013          	nop
    1395:	00000013          	nop
    1399:	00000013          	nop
    139d:	00000013          	nop
    13a1:	00000013          	nop
    13a5:	00000013          	nop
    13a9:	00000013          	nop
    13ad:	00000013          	nop
    13b1:	00000013          	nop
    13b5:	00000013          	nop
    13b9:	00000013          	nop
    13bd:	00000013          	nop
    13c1:	00000013          	nop
    13c5:	00000013          	nop
    13c9:	00000013          	nop
    13cd:	00000013          	nop
    13d1:	00000013          	nop
    13d5:	00000013          	nop
    13d9:	00000013          	nop
    13dd:	00000013          	nop
    13e1:	00000013          	nop
    13e5:	00000013          	nop
    13e9:	00000013          	nop
    13ed:	00000013          	nop
    13f1:	00000013          	nop
    13f5:	00000013          	nop
    13f9:	00000013          	nop
    13fd:	00000013          	nop
    1401:	00000013          	nop
    1405:	00000013          	nop
    1409:	00000013          	nop
    140d:	00000013          	nop
    1411:	00000013          	nop
    1415:	00000013          	nop
    1419:	00000013          	nop
    141d:	00000013          	nop
    1421:	00000013          	nop
    1425:	00000013          	nop
    1429:	00000013          	nop
    142d:	00000013          	nop
    1431:	00000013          	nop
    1435:	00000013          	nop
    1439:	00000013          	nop
    143d:	00000013          	nop
    1441:	00000013          	nop
    1445:	00000013          	nop
    1449:	00000013          	nop
    144d:	00000013          	nop
    1451:	00000013          	nop
    1455:	00000013          	nop
    1459:	00000013          	nop
    145d:	00000013          	nop
    1461:	00000013          	nop
    1465:	00000013          	nop
    1469:	00000013          	nop
    146d:	00000013          	nop
    1471:	00000013          	nop
    1475:	00000013          	nop
    1479:	00000013          	nop
    147d:	00000013          	nop
    1481:	00000013          	nop
    1485:	00000013          	nop
    1489:	00000013          	nop
    148d:	00000013          	nop
    1491:	00000013          	nop
    1495:	00000013          	nop
    1499:	00000013          	nop
    149d:	00000013          	nop
    14a1:	00000013          	nop
    14a5:	00000013          	nop
    14a9:	00000013          	nop
    14ad:	00000013          	nop
    14b1:	00000013          	nop
    14b5:	00000013          	nop
    14b9:	00000013          	nop
    14bd:	00000013          	nop
    14c1:	00000013          	nop
    14c5:	00000013          	nop
    14c9:	00000013          	nop
    14cd:	00000013          	nop
    14d1:	00000013          	nop
    14d5:	00000013          	nop
    14d9:	00000013          	nop
    14dd:	00000013          	nop
    14e1:	00000013          	nop
    14e5:	00000013          	nop
    14e9:	00000013          	nop
    14ed:	00000013          	nop
    14f1:	00000013          	nop
    14f5:	00000013          	nop
    14f9:	00000013          	nop
    14fd:	00000013          	nop
    1501:	00000013          	nop
    1505:	00000013          	nop
    1509:	00000013          	nop
    150d:	00000013          	nop
    1511:	00000013          	nop

00001515 <printer>:
    1515:	00018593          	mv	a1,gp
    1519:	00000517          	auipc	a0,0x0
    151d:	00050513          	mv	a0,a0
    1521:	06c000ef          	jal	158d <copy_string>
    1525:	00018513          	mv	a0,gp
    1529:	00300893          	li	a7,3
    152d:	00000073          	ecall
    1531:	00018513          	mv	a0,gp
    1535:	00018593          	mv	a1,gp
    1539:	074000ef          	jal	15ad <copy_reverse_string>
    153d:	00018513          	mv	a0,gp
    1541:	00300893          	li	a7,3
    1545:	00000073          	ecall
    1549:	00000513          	li	a0,0
    154d:	00018593          	mv	a1,gp
    1551:	0a0000ef          	jal	15f1 <int_to_string>
    1555:	00018513          	mv	a0,gp
    1559:	00300893          	li	a7,3
    155d:	00000073          	ecall
    1561:	00000597          	auipc	a1,0x0
    1565:	00058593          	mv	a1,a1
    1569:	02818613          	addi	a2,gp,40
    156d:	0e8000ef          	jal	1655 <string_to_int>
    1571:	02818593          	addi	a1,gp,40
    1575:	07c000ef          	jal	15f1 <int_to_string>
    1579:	02818513          	addi	a0,gp,40
    157d:	00300893          	li	a7,3
    1581:	00000073          	ecall
    1585:	00100893          	li	a7,1
    1589:	00000073          	ecall

0000158d <copy_string>:
    158d:	fff50513          	addi	a0,a0,-1 # 1518 <printer+0x3>
    1591:	fff58593          	addi	a1,a1,-1 # 1560 <printer+0x4b>

00001595 <cp_loop>:
    1595:	00150513          	addi	a0,a0,1
    1599:	00158593          	addi	a1,a1,1
    159d:	00050283          	lb	t0,0(a0)
    15a1:	00558023          	sb	t0,0(a1)
    15a5:	fe0298e3          	bnez	t0,1595 <cp_loop>
    15a9:	00008067          	ret

000015ad <copy_reverse_string>:
    15ad:	fff50513          	addi	a0,a0,-1
    15b1:	00010313          	mv	t1,sp

000015b5 <cpr_loop>:
    15b5:	00150513          	addi	a0,a0,1
    15b9:	00050283          	lb	t0,0(a0)
    15bd:	fff10113          	addi	sp,sp,-1
    15c1:	00510023          	sb	t0,0(sp)
    15c5:	fe5018e3          	bne	zero,t0,15b5 <cpr_loop>
    15c9:	fff58593          	addi	a1,a1,-1
    15cd:	00110113          	addi	sp,sp,1

000015d1 <cpr_loop_2>:
    15d1:	00158593          	addi	a1,a1,1
    15d5:	00010283          	lb	t0,0(sp)
    15d9:	00110113          	addi	sp,sp,1
    15dd:	00558023          	sb	t0,0(a1)
    15e1:	fe6118e3          	bne	sp,t1,15d1 <cpr_loop_2>
    15e5:	00158593          	addi	a1,a1,1
    15e9:	00058023          	sb	zero,0(a1)
    15ed:	00008067          	ret

000015f1 <int_to_string>:
    15f1:	ffc10113          	addi	sp,sp,-4
    15f5:	00112023          	sw	ra,0(sp)
    15f9:	00000293          	li	t0,0
    15fd:	00a00313          	li	t1,10
    1601:	00058393          	mv	t2,a1
    1605:	00055663          	bgez	a0,1611 <pos_num>
    1609:	40a00533          	neg	a0,a0
    160d:	00100293          	li	t0,1

00001611 <pos_num>:
    1611:	02656e33          	rem	t3,a0,t1
    1615:	030e0e13          	addi	t3,t3,48
    1619:	01c58023          	sb	t3,0(a1)
    161d:	00158593          	addi	a1,a1,1
    1621:	02654533          	div	a0,a0,t1
    1625:	fea016e3          	bne	zero,a0,1611 <pos_num>
    1629:	00500863          	beq	zero,t0,1639 <pos_num_2>
    162d:	02d00e13          	li	t3,45
    1631:	01c58023          	sb	t3,0(a1)
    1635:	00158593          	addi	a1,a1,1

00001639 <pos_num_2>:
    1639:	00058023          	sb	zero,0(a1)
    163d:	00038593          	mv	a1,t2
    1641:	00058513          	mv	a0,a1
    1645:	f69ff0ef          	jal	15ad <copy_reverse_string>
    1649:	00012083          	lw	ra,0(sp)
    164d:	00410113          	addi	sp,sp,4
    1651:	00008067          	ret

00001655 <string_to_int>:
    1655:	ffc10113          	addi	sp,sp,-4
    1659:	00112023          	sw	ra,0(sp)
    165d:	00058513          	mv	a0,a1
    1661:	00060593          	mv	a1,a2
    1665:	f49ff0ef          	jal	15ad <copy_reverse_string>
    1669:	00060593          	mv	a1,a2
    166d:	00058283          	lb	t0,0(a1)
    1671:	02d00313          	li	t1,45
    1675:	00000393          	li	t2,0
    1679:	00531663          	bne	t1,t0,1685 <pos_num_3>
    167d:	00100393          	li	t2,1
    1681:	00158593          	addi	a1,a1,1

00001685 <pos_num_3>:
    1685:	00000513          	li	a0,0
    1689:	00100e13          	li	t3,1
    168d:	00a00e93          	li	t4,10

00001691 <st_t_i_loop>:
    1691:	00058283          	lb	t0,0(a1)
    1695:	00500e63          	beq	zero,t0,16b1 <st_t_i_exit>
    1699:	fd028293          	addi	t0,t0,-48
    169d:	03c282b3          	mul	t0,t0,t3
    16a1:	03de0e33          	mul	t3,t3,t4
    16a5:	00550533          	add	a0,a0,t0
    16a9:	00158593          	addi	a1,a1,1
    16ad:	fe5ff06f          	j	1691 <st_t_i_loop>

000016b1 <st_t_i_exit>:
    16b1:	00012083          	lw	ra,0(sp)
    16b5:	00410113          	addi	sp,sp,4
    16b9:	00008067          	ret

000016bd <printer_msg>:
    16bd:	66757453          	.insn	4, 0x66757453
    16c1:	3a66                	.insn	2, 0x3a66
    16c3:	000a                	.insn	2, 0x000a

000016c5 <num_msg>:
    16c5:	3531                	.insn	2, 0x3531
    16c7:	1300                	.insn	2, 0x1300
    16c9:	0000                	.insn	2, 0x
    16cb:	1300                	.insn	2, 0x1300
    16cd:	0000                	.insn	2, 0x
    16cf:	1300                	.insn	2, 0x1300
    16d1:	0000                	.insn	2, 0x
    16d3:	1300                	.insn	2, 0x1300
    16d5:	0000                	.insn	2, 0x
    16d7:	1300                	.insn	2, 0x1300
    16d9:	0000                	.insn	2, 0x
    16db:	1300                	.insn	2, 0x1300
    16dd:	0000                	.insn	2, 0x
    16df:	1300                	.insn	2, 0x1300
    16e1:	0000                	.insn	2, 0x
	...

000016e4 <test_program0>:
    16e4:	ffc00537          	lui	a0,0xffc00
    16e8:	fff50513          	addi	a0,a0,-1 # ffbfffff <led_red>
    16ec:	00000893          	li	a7,0
    16f0:	00000073          	ecall
    16f4:	ff1ff06f          	j	16e4 <test_program0>
    16f8:	00000013          	nop
    16fc:	00000013          	nop
    1700:	00000013          	nop
    1704:	00000013          	nop
    1708:	00000013          	nop
    170c:	00000013          	nop
    1710:	00000013          	nop

00001714 <test_program1>:
    1714:	fff80537          	lui	a0,0xfff80
    1718:	fff50513          	addi	a0,a0,-1 # fff7ffff <led_green>
    171c:	00000893          	li	a7,0
    1720:	00000073          	ecall
    1724:	00400893          	li	a7,4
    1728:	00000073          	ecall
    172c:	fe9ff06f          	j	1714 <test_program1>
    1730:	00000013          	nop
    1734:	00000013          	nop
    1738:	00000013          	nop
    173c:	00000013          	nop
    1740:	00000013          	nop
    1744:	00000013          	nop
    1748:	00000013          	nop

0000174c <test_program2>:
    174c:	ffe00537          	lui	a0,0xffe00
    1750:	fff50513          	addi	a0,a0,-1 # ffdfffff <led_blue>
    1754:	00000893          	li	a7,0
    1758:	00000073          	ecall
    175c:	ff1ff06f          	j	174c <test_program2>
	...
